target datalayout = "e-m:e-p270:32:32-p271:32:32-p272:64:64-i64:64-i128:128-f80:128-n8:16:32:64-S128"
target triple = "x86_64-pc-linux-gnu"

%struct.evp_pkey_st = type { i32, i32, ptr, ptr, ptr, %union.legacy_pkey_st, %union.legacy_pkey_st, %struct.CRYPTO_REF_COUNT, ptr, ptr, i32, i8, %struct.crypto_ex_data_st, ptr, ptr, i64, ptr, i64, %struct.anon }
%union.legacy_pkey_st = type { ptr }
%struct.CRYPTO_REF_COUNT = type { i32 }
%struct.crypto_ex_data_st = type { ptr, ptr }
%struct.anon = type { i32, i32, i32 }
%struct.evp_pkey_asn1_method_st = type { i32, i32, i64, ptr, ptr, ptr, ptr, ptr, ptr, ptr, ptr, ptr, ptr, ptr, ptr, ptr, ptr, ptr, ptr, ptr, ptr, ptr, ptr, ptr, ptr, ptr, ptr, ptr, ptr, ptr, ptr, ptr, ptr, ptr, ptr, ptr, ptr, ptr, ptr, ptr, ptr }

@.str = private unnamed_addr constant [30 x i8] c"../openssl/crypto/evp/p_lib.c\00", align 1
@__func__.EVP_PKEY_get_size = private unnamed_addr constant [18 x i8] c"EVP_PKEY_get_size\00", align 1

; Function Attrs: nounwind uwtable
define i32 @EVP_PKEY_get_size(ptr noundef %0) #0 {
  %2 = alloca i32, align 4
  %3 = alloca ptr, align 8
  %4 = alloca i32, align 4
  %5 = alloca i32, align 4
  store ptr %0, ptr %3, align 8, !tbaa !3
  call void @llvm.lifetime.start.p0(i64 4, ptr %4) #8
  store i32 0, ptr %4, align 4, !tbaa !8
  %6 = load ptr, ptr %3, align 8, !tbaa !3
  %7 = icmp ne ptr %6, null
  br i1 %7, label %8, label %33

8:                                                ; preds = %1
  %9 = load ptr, ptr %3, align 8, !tbaa !3
  %10 = getelementptr inbounds nuw %struct.evp_pkey_st, ptr %9, i32 0, i32 18
  %11 = getelementptr inbounds nuw %struct.anon, ptr %10, i32 0, i32 2
  %12 = load i32, ptr %11, align 8, !tbaa !141
  store i32 %12, ptr %4, align 4, !tbaa !8
  %13 = load ptr, ptr %3, align 8, !tbaa !3
  %14 = getelementptr inbounds nuw %struct.evp_pkey_st, ptr %13, i32 0, i32 2
  %15 = load ptr, ptr %14, align 8, !tbaa !23
  %16 = icmp ne ptr %15, null
  br i1 %16, label %17, label %32

17:                                               ; preds = %8
  %18 = load ptr, ptr %3, align 8, !tbaa !3
  %19 = getelementptr inbounds nuw %struct.evp_pkey_st, ptr %18, i32 0, i32 2
  %20 = load ptr, ptr %19, align 8, !tbaa !23
  %21 = getelementptr inbounds nuw %struct.evp_pkey_asn1_method_st, ptr %20, i32 0, i32 12
  %22 = load ptr, ptr %21, align 8, !tbaa !142
  %23 = icmp ne ptr %22, null
  br i1 %23, label %24, label %32

24:                                               ; preds = %17
  %25 = load ptr, ptr %3, align 8, !tbaa !3
  %26 = getelementptr inbounds nuw %struct.evp_pkey_st, ptr %25, i32 0, i32 2
  %27 = load ptr, ptr %26, align 8, !tbaa !23
  %28 = getelementptr inbounds nuw %struct.evp_pkey_asn1_method_st, ptr %27, i32 0, i32 12
  %29 = load ptr, ptr %28, align 8, !tbaa !142
  %30 = load ptr, ptr %3, align 8, !tbaa !3
  %31 = call i32 %29(ptr noundef %30)
  store i32 %31, ptr %4, align 4, !tbaa !8
  br label %32

32:                                               ; preds = %24, %17, %8
  br label %33

33:                                               ; preds = %32, %1
  %34 = load i32, ptr %4, align 4, !tbaa !8
  %35 = icmp sle i32 %34, 0
  br i1 %35, label %36, label %37

36:                                               ; preds = %33
  call void @ERR_new()
  call void @ERR_set_debug(ptr noundef @.str, i32 noundef 1868, ptr noundef @__func__.EVP_PKEY_get_size)
  call void (i32, i32, ptr, ...) @ERR_set_error(i32 noundef 6, i32 noundef 167, ptr noundef null)
  store i32 0, ptr %2, align 4
  store i32 1, ptr %5, align 4
  br label %39

37:                                               ; preds = %33
  %38 = load i32, ptr %4, align 4, !tbaa !8
  store i32 %38, ptr %2, align 4
  store i32 1, ptr %5, align 4
  br label %39

39:                                               ; preds = %37, %36
  call void @llvm.lifetime.end.p0(i64 4, ptr %4) #8
  %40 = load i32, ptr %2, align 4
  ret i32 %40
}